target datalayout = "e-m:e-p270:32:32-p271:32:32-p272:64:64-i64:64-i128:128-f80:128-n8:16:32:64-S128"
target triple = "x86_64-unknown-linux-gnu"

%"class.openvdb::v11_0::points::StringMetaCache" = type { %"class.std::unordered_map" }
%"class.std::unordered_map" = type { %"class.std::_Hashtable" }
%"class.std::_Hashtable" = type { ptr, i64, %"struct.std::__detail::_Hash_node_base", i64, %"struct.std::__detail::_Prime_rehash_policy", ptr }
%"struct.std::__detail::_Hash_node_base" = type { ptr }
%"struct.std::__detail::_Prime_rehash_policy" = type { float, i64 }
%"class.std::__shared_count" = type { ptr }
%"class.openvdb::v11_0::points::StringAttributeHandle" = type { %"class.openvdb::v11_0::points::AttributeHandle", ptr }
%"class.openvdb::v11_0::points::AttributeHandle" = type <{ ptr, ptr, ptr, ptr, ptr, ptr, %"class.std::shared_ptr.27", i32, i32, i8, [7 x i8] }>
%"class.std::shared_ptr.27" = type { %"class.std::__shared_ptr.28" }
%"class.std::__shared_ptr.28" = type { ptr, %"class.std::__shared_count" }
%"class.openvdb::v11_0::points::StringAttributeWriteHandle" = type { %"class.openvdb::v11_0::points::StringAttributeHandle", %"class.openvdb::v11_0::points::StringMetaCache", %"class.openvdb::v11_0::points::AttributeWriteHandle" }
%"class.openvdb::v11_0::points::AttributeWriteHandle" = type { %"class.openvdb::v11_0::points::AttributeHandle.base", [7 x i8] }
%"class.openvdb::v11_0::points::AttributeHandle.base" = type <{ ptr, ptr, ptr, ptr, ptr, ptr, %"class.std::shared_ptr.27", i32, i32, i8 }>

; Function Attrs: mustprogress uwtable
define linkonce_odr void @_ZN7openvdb5v11_06points20AttributeWriteHandleIjNS1_11StringCodecILb0EEEE8collapseERKj(ptr noundef nonnull align 8 dereferenceable(73) %this, ptr noundef nonnull align 4 dereferenceable(4) %uniformValue) #4 comdat align 2 {
entry:
  %this.addr = alloca ptr, align 8
  %uniformValue.addr = alloca ptr, align 8
  store ptr %this, ptr %this.addr, align 8
  store ptr %uniformValue, ptr %uniformValue.addr, align 8
  %this1 = load ptr, ptr %this.addr, align 8
  %mCollapser = getelementptr inbounds %"class.openvdb::v11_0::points::AttributeHandle", ptr %this1, i32 0, i32 4
  %0 = load ptr, ptr %mCollapser, align 8
  %mArray = getelementptr inbounds %"class.openvdb::v11_0::points::AttributeHandle", ptr %this1, i32 0, i32 1
  %1 = load ptr, ptr %mArray, align 8
  %2 = load ptr, ptr %uniformValue.addr, align 8
  call void %0(ptr noundef %1, ptr noundef nonnull align 4 dereferenceable(4) %2)
  ret void
}

; Function Attrs: mustprogress uwtable
define void @_ZN7openvdb5v11_06points26StringAttributeWriteHandle8collapseEv(ptr noundef nonnull align 8 dereferenceable(224) %this) #4 align 2 {
entry:
  %this.addr = alloca ptr, align 8
  %ref.tmp = alloca i32, align 4
  store ptr %this, ptr %this.addr, align 8
  %this1 = load ptr, ptr %this.addr, align 8
  %mWriteHandle = getelementptr inbounds %"class.openvdb::v11_0::points::StringAttributeWriteHandle", ptr %this1, i32 0, i32 2
  store i32 0, ptr %ref.tmp, align 4
  call void @_ZN7openvdb5v11_06points20AttributeWriteHandleIjNS1_11StringCodecILb0EEEE8collapseERKj(ptr noundef nonnull align 8 dereferenceable(73) %mWriteHandle, ptr noundef nonnull align 4 dereferenceable(4) %ref.tmp)
  ret void
}