; Function Attrs: mustprogress uwtable
define void @_ZN7openvdb5v11_06points26StringAttributeWriteHandle8collapseEv(ptr nocapture noundef nonnull readonly align 8 dereferenceable(224) %this) local_unnamed_addr #3 align 2 {
entry:
  %ref.tmp = alloca i32, align 4
  store i32 0, ptr %ref.tmp, align 4
  %mCollapser.i = getelementptr inbounds i8, ptr %this, i64 176
  %0 = load ptr, ptr %mCollapser.i, align 8
  %mArray.i = getelementptr inbounds i8, ptr %this, i64 152
  %1 = load ptr, ptr %mArray.i, align 8
  call void %0(ptr noundef %1, ptr noundef nonnull align 4 dereferenceable(4) %ref.tmp)
  ret void
}